; Function Attrs: nounwind uwtable
define hidden void @zif_stream_set_write_buffer(ptr noundef %0, ptr nocapture noundef writeonly %1) local_unnamed_addr #0 {
  %3 = alloca i64, align 8
  %4 = alloca i64, align 8
  %5 = getelementptr inbounds i8, ptr %0, i64 44
  %6 = load i32, ptr %5, align 4
  %.not = icmp eq i32 %6, 2
  br i1 %.not, label %8, label %7

7:                                                ; preds = %2
  tail call void @zend_wrong_parameters_count_error(i32 noundef 2, i32 noundef 2) #10
  br label %.thread104

8:                                                ; preds = %2
  %9 = getelementptr inbounds i8, ptr %0, i64 80
  %10 = getelementptr inbounds i8, ptr %0, i64 88
  %11 = load i8, ptr %10, align 8
  %.not93 = icmp eq i8 %11, 9
  br i1 %.not93, label %12, label %.thread104

12:                                               ; preds = %8
  %13 = getelementptr inbounds i8, ptr %0, i64 96
  %14 = getelementptr inbounds i8, ptr %0, i64 104
  %15 = load i8, ptr %14, align 8
  %16 = icmp eq i8 %15, 4
  br i1 %16, label %.thread100, label %18

.thread100:                                       ; preds = %12
  %17 = load i64, ptr %13, align 8
  store i64 %17, ptr %3, align 8
  br label %.thread124

18:                                               ; preds = %12
  %19 = call zeroext i1 @zend_parse_arg_long_slow(ptr noundef nonnull %13, ptr noundef nonnull %3, i32 noundef 2) #10
  %.fr = freeze i1 %19
  br i1 %.fr, label %.thread124, label %.thread104

.thread104:                                       ; preds = %8, %7, %18
  %.082114 = phi i32 [ 9, %18 ], [ 9, %8 ], [ 1, %7 ]
  %.085113 = phi i32 [ 0, %18 ], [ 14, %8 ], [ 0, %7 ]
  %.086112 = phi ptr [ %13, %18 ], [ %9, %8 ], [ null, %7 ]
  %.087111 = phi i32 [ 2, %18 ], [ 1, %8 ], [ 0, %7 ]
  call void @zend_wrong_parameter_error(i32 noundef %.082114, i32 noundef %.087111, ptr noundef null, i32 noundef %.085113, ptr noundef %.086112) #10
  br label %35

.thread124:                                       ; preds = %18, %.thread100
  %20 = call i32 @php_file_le_stream() #10
  %21 = call i32 @php_file_le_pstream() #10
  %22 = call ptr @zend_fetch_resource2_ex(ptr noundef nonnull %9, ptr noundef nonnull @.str.6, i32 noundef %20, i32 noundef %21) #10
  %23 = icmp eq ptr %22, null
  br i1 %23, label %35, label %24

24:                                               ; preds = %.thread124
  %25 = load i64, ptr %3, align 8
  store i64 %25, ptr %4, align 8
  %26 = icmp eq i64 %25, 0
  br i1 %26, label %27, label %29

27:                                               ; preds = %24
  %28 = call i32 @_php_stream_set_option(ptr noundef nonnull %22, i32 noundef 3, i32 noundef 0, ptr noundef null) #10
  br label %31

29:                                               ; preds = %24
  %30 = call i32 @_php_stream_set_option(ptr noundef nonnull %22, i32 noundef 3, i32 noundef 2, ptr noundef nonnull %4) #10
  br label %31

31:                                               ; preds = %29, %27
  %.084 = phi i32 [ %28, %27 ], [ %30, %29 ]
  %32 = icmp ne i32 %.084, 0
  %33 = sext i1 %32 to i64
  store i64 %33, ptr %1, align 8
  %34 = getelementptr inbounds i8, ptr %1, i64 8
  store i32 4, ptr %34, align 8
  br label %35

35:                                               ; preds = %.thread124, %31, %.thread104
  ret void
}